target datalayout = "e-m:e-p270:32:32-p271:32:32-p272:64:64-i64:64-i128:128-f80:128-n8:16:32:64-S128"
target triple = "x86_64-pc-linux-gnu"

%struct.rawSeqStore_t = type { ptr, i64, i64, i64, i64 }
%struct.ZSTD_optLdm_t = type { %struct.rawSeqStore_t, i32, i32, i32 }
%struct.rawSeq = type { i32, i32, i32 }

; Function Attrs: nounwind uwtable
define internal void @ZSTD_optLdm_skipRawSeqStoreBytes(ptr noundef %0, i64 noundef %1) #0 {
  %3 = alloca ptr, align 8
  %4 = alloca i64, align 8
  %5 = alloca i32, align 4
  %6 = alloca %struct.rawSeq, align 4
  store ptr %0, ptr %3, align 8
  store i64 %1, ptr %4, align 8
  %7 = load ptr, ptr %3, align 8
  %8 = getelementptr inbounds %struct.rawSeqStore_t, ptr %7, i32 0, i32 2
  %9 = load i64, ptr %8, align 8
  %10 = load i64, ptr %4, align 8
  %11 = add i64 %9, %10
  %12 = trunc i64 %11 to i32
  store i32 %12, ptr %5, align 4
  br label %13

13:                                               ; preds = %58, %2
  %14 = load i32, ptr %5, align 4
  %15 = icmp ne i32 %14, 0
  br i1 %15, label %16, label %24

16:                                               ; preds = %13
  %17 = load ptr, ptr %3, align 8
  %18 = getelementptr inbounds %struct.rawSeqStore_t, ptr %17, i32 0, i32 1
  %19 = load i64, ptr %18, align 8
  %20 = load ptr, ptr %3, align 8
  %21 = getelementptr inbounds %struct.rawSeqStore_t, ptr %20, i32 0, i32 3
  %22 = load i64, ptr %21, align 8
  %23 = icmp ult i64 %19, %22
  br label %24

24:                                               ; preds = %16, %13
  %25 = phi i1 [ false, %13 ], [ %23, %16 ]
  br i1 %25, label %26, label %59

26:                                               ; preds = %24
  %27 = load ptr, ptr %3, align 8
  %28 = getelementptr inbounds %struct.rawSeqStore_t, ptr %27, i32 0, i32 0
  %29 = load ptr, ptr %28, align 8
  %30 = load ptr, ptr %3, align 8
  %31 = getelementptr inbounds %struct.rawSeqStore_t, ptr %30, i32 0, i32 1
  %32 = load i64, ptr %31, align 8
  %33 = getelementptr inbounds %struct.rawSeq, ptr %29, i64 %32
  call void @llvm.memcpy.p0.p0.i64(ptr align 4 %6, ptr align 4 %33, i64 12, i1 false)
  %34 = load i32, ptr %5, align 4
  %35 = getelementptr inbounds %struct.rawSeq, ptr %6, i32 0, i32 1
  %36 = load i32, ptr %35, align 4
  %37 = getelementptr inbounds %struct.rawSeq, ptr %6, i32 0, i32 2
  %38 = load i32, ptr %37, align 4
  %39 = add i32 %36, %38
  %40 = icmp uge i32 %34, %39
  br i1 %40, label %41, label %53

41:                                               ; preds = %26
  %42 = getelementptr inbounds %struct.rawSeq, ptr %6, i32 0, i32 1
  %43 = load i32, ptr %42, align 4
  %44 = getelementptr inbounds %struct.rawSeq, ptr %6, i32 0, i32 2
  %45 = load i32, ptr %44, align 4
  %46 = add i32 %43, %45
  %47 = load i32, ptr %5, align 4
  %48 = sub i32 %47, %46
  store i32 %48, ptr %5, align 4
  %49 = load ptr, ptr %3, align 8
  %50 = getelementptr inbounds %struct.rawSeqStore_t, ptr %49, i32 0, i32 1
  %51 = load i64, ptr %50, align 8
  %52 = add i64 %51, 1
  store i64 %52, ptr %50, align 8
  br label %58

53:                                               ; preds = %26
  %54 = load i32, ptr %5, align 4
  %55 = zext i32 %54 to i64
  %56 = load ptr, ptr %3, align 8
  %57 = getelementptr inbounds %struct.rawSeqStore_t, ptr %56, i32 0, i32 2
  store i64 %55, ptr %57, align 8
  br label %59

58:                                               ; preds = %41
  br label %13, !llvm.loop !33

59:                                               ; preds = %53, %24
  %60 = load i32, ptr %5, align 4
  %61 = icmp eq i32 %60, 0
  br i1 %61, label %70, label %62

62:                                               ; preds = %59
  %63 = load ptr, ptr %3, align 8
  %64 = getelementptr inbounds %struct.rawSeqStore_t, ptr %63, i32 0, i32 1
  %65 = load i64, ptr %64, align 8
  %66 = load ptr, ptr %3, align 8
  %67 = getelementptr inbounds %struct.rawSeqStore_t, ptr %66, i32 0, i32 3
  %68 = load i64, ptr %67, align 8
  %69 = icmp eq i64 %65, %68
  br i1 %69, label %70, label %73

70:                                               ; preds = %62, %59
  %71 = load ptr, ptr %3, align 8
  %72 = getelementptr inbounds %struct.rawSeqStore_t, ptr %71, i32 0, i32 2
  store i64 0, ptr %72, align 8
  br label %73

73:                                               ; preds = %70, %62
  ret void
}

; Function Attrs: nounwind uwtable
define internal void @ZSTD_opt_getNextMatchAndUpdateSeqStore(ptr noundef %0, i32 noundef %1, i32 noundef %2) #0 {
  %4 = alloca ptr, align 8
  %5 = alloca i32, align 4
  %6 = alloca i32, align 4
  %7 = alloca %struct.rawSeq, align 4
  %8 = alloca i32, align 4
  %9 = alloca i32, align 4
  %10 = alloca i32, align 4
  store ptr %0, ptr %4, align 8
  store i32 %1, ptr %5, align 4
  store i32 %2, ptr %6, align 4
  %11 = load ptr, ptr %4, align 8
  %12 = getelementptr inbounds %struct.ZSTD_optLdm_t, ptr %11, i32 0, i32 0
  %13 = getelementptr inbounds %struct.rawSeqStore_t, ptr %12, i32 0, i32 3
  %14 = load i64, ptr %13, align 8
  %15 = icmp eq i64 %14, 0
  br i1 %15, label %26, label %16

16:                                               ; preds = %3
  %17 = load ptr, ptr %4, align 8
  %18 = getelementptr inbounds %struct.ZSTD_optLdm_t, ptr %17, i32 0, i32 0
  %19 = getelementptr inbounds %struct.rawSeqStore_t, ptr %18, i32 0, i32 1
  %20 = load i64, ptr %19, align 8
  %21 = load ptr, ptr %4, align 8
  %22 = getelementptr inbounds %struct.ZSTD_optLdm_t, ptr %21, i32 0, i32 0
  %23 = getelementptr inbounds %struct.rawSeqStore_t, ptr %22, i32 0, i32 3
  %24 = load i64, ptr %23, align 8
  %25 = icmp uge i64 %20, %24
  br i1 %25, label %26, label %31

26:                                               ; preds = %16, %3
  %27 = load ptr, ptr %4, align 8
  %28 = getelementptr inbounds %struct.ZSTD_optLdm_t, ptr %27, i32 0, i32 1
  store i32 -1, ptr %28, align 8
  %29 = load ptr, ptr %4, align 8
  %30 = getelementptr inbounds %struct.ZSTD_optLdm_t, ptr %29, i32 0, i32 2
  store i32 -1, ptr %30, align 4
  br label %134

31:                                               ; preds = %16
  %32 = load ptr, ptr %4, align 8
  %33 = getelementptr inbounds %struct.ZSTD_optLdm_t, ptr %32, i32 0, i32 0
  %34 = getelementptr inbounds %struct.rawSeqStore_t, ptr %33, i32 0, i32 0
  %35 = load ptr, ptr %34, align 8
  %36 = load ptr, ptr %4, align 8
  %37 = getelementptr inbounds %struct.ZSTD_optLdm_t, ptr %36, i32 0, i32 0
  %38 = getelementptr inbounds %struct.rawSeqStore_t, ptr %37, i32 0, i32 1
  %39 = load i64, ptr %38, align 8
  %40 = getelementptr inbounds %struct.rawSeq, ptr %35, i64 %39
  call void @llvm.memcpy.p0.p0.i64(ptr align 4 %7, ptr align 4 %40, i64 12, i1 false)
  %41 = load i32, ptr %5, align 4
  %42 = load i32, ptr %6, align 4
  %43 = add i32 %41, %42
  store i32 %43, ptr %8, align 4
  %44 = load ptr, ptr %4, align 8
  %45 = getelementptr inbounds %struct.ZSTD_optLdm_t, ptr %44, i32 0, i32 0
  %46 = getelementptr inbounds %struct.rawSeqStore_t, ptr %45, i32 0, i32 2
  %47 = load i64, ptr %46, align 8
  %48 = getelementptr inbounds %struct.rawSeq, ptr %7, i32 0, i32 1
  %49 = load i32, ptr %48, align 4
  %50 = zext i32 %49 to i64
  %51 = icmp ult i64 %47, %50
  br i1 %51, label %52, label %61

52:                                               ; preds = %31
  %53 = getelementptr inbounds %struct.rawSeq, ptr %7, i32 0, i32 1
  %54 = load i32, ptr %53, align 4
  %55 = load ptr, ptr %4, align 8
  %56 = getelementptr inbounds %struct.ZSTD_optLdm_t, ptr %55, i32 0, i32 0
  %57 = getelementptr inbounds %struct.rawSeqStore_t, ptr %56, i32 0, i32 2
  %58 = load i64, ptr %57, align 8
  %59 = trunc i64 %58 to i32
  %60 = sub i32 %54, %59
  br label %62

61:                                               ; preds = %31
  br label %62

62:                                               ; preds = %61, %52
  %63 = phi i32 [ %60, %52 ], [ 0, %61 ]
  store i32 %63, ptr %9, align 4
  %64 = load i32, ptr %9, align 4
  %65 = icmp eq i32 %64, 0
  br i1 %65, label %66, label %78

66:                                               ; preds = %62
  %67 = getelementptr inbounds %struct.rawSeq, ptr %7, i32 0, i32 2
  %68 = load i32, ptr %67, align 4
  %69 = load ptr, ptr %4, align 8
  %70 = getelementptr inbounds %struct.ZSTD_optLdm_t, ptr %69, i32 0, i32 0
  %71 = getelementptr inbounds %struct.rawSeqStore_t, ptr %70, i32 0, i32 2
  %72 = load i64, ptr %71, align 8
  %73 = trunc i64 %72 to i32
  %74 = getelementptr inbounds %struct.rawSeq, ptr %7, i32 0, i32 1
  %75 = load i32, ptr %74, align 4
  %76 = sub i32 %73, %75
  %77 = sub i32 %68, %76
  br label %81

78:                                               ; preds = %62
  %79 = getelementptr inbounds %struct.rawSeq, ptr %7, i32 0, i32 2
  %80 = load i32, ptr %79, align 4
  br label %81

81:                                               ; preds = %78, %66
  %82 = phi i32 [ %77, %66 ], [ %80, %78 ]
  store i32 %82, ptr %10, align 4
  %83 = load i32, ptr %9, align 4
  %84 = load i32, ptr %6, align 4
  %85 = icmp uge i32 %83, %84
  br i1 %85, label %86, label %95

86:                                               ; preds = %81
  %87 = load ptr, ptr %4, align 8
  %88 = getelementptr inbounds %struct.ZSTD_optLdm_t, ptr %87, i32 0, i32 1
  store i32 -1, ptr %88, align 8
  %89 = load ptr, ptr %4, align 8
  %90 = getelementptr inbounds %struct.ZSTD_optLdm_t, ptr %89, i32 0, i32 2
  store i32 -1, ptr %90, align 4
  %91 = load ptr, ptr %4, align 8
  %92 = getelementptr inbounds %struct.ZSTD_optLdm_t, ptr %91, i32 0, i32 0
  %93 = load i32, ptr %6, align 4
  %94 = zext i32 %93 to i64
  call void @ZSTD_optLdm_skipRawSeqStoreBytes(ptr noundef %92, i64 noundef %94)
  br label %134

95:                                               ; preds = %81
  %96 = load i32, ptr %5, align 4
  %97 = load i32, ptr %9, align 4
  %98 = add i32 %96, %97
  %99 = load ptr, ptr %4, align 8
  %100 = getelementptr inbounds %struct.ZSTD_optLdm_t, ptr %99, i32 0, i32 1
  store i32 %98, ptr %100, align 8
  %101 = load ptr, ptr %4, align 8
  %102 = getelementptr inbounds %struct.ZSTD_optLdm_t, ptr %101, i32 0, i32 1
  %103 = load i32, ptr %102, align 8
  %104 = load i32, ptr %10, align 4
  %105 = add i32 %103, %104
  %106 = load ptr, ptr %4, align 8
  %107 = getelementptr inbounds %struct.ZSTD_optLdm_t, ptr %106, i32 0, i32 2
  store i32 %105, ptr %107, align 4
  %108 = getelementptr inbounds %struct.rawSeq, ptr %7, i32 0, i32 0
  %109 = load i32, ptr %108, align 4
  %110 = load ptr, ptr %4, align 8
  %111 = getelementptr inbounds %struct.ZSTD_optLdm_t, ptr %110, i32 0, i32 3
  store i32 %109, ptr %111, align 8
  %112 = load ptr, ptr %4, align 8
  %113 = getelementptr inbounds %struct.ZSTD_optLdm_t, ptr %112, i32 0, i32 2
  %114 = load i32, ptr %113, align 4
  %115 = load i32, ptr %8, align 4
  %116 = icmp ugt i32 %114, %115
  br i1 %116, label %117, label %127

117:                                              ; preds = %95
  %118 = load i32, ptr %8, align 4
  %119 = load ptr, ptr %4, align 8
  %120 = getelementptr inbounds %struct.ZSTD_optLdm_t, ptr %119, i32 0, i32 2
  store i32 %118, ptr %120, align 4
  %121 = load ptr, ptr %4, align 8
  %122 = getelementptr inbounds %struct.ZSTD_optLdm_t, ptr %121, i32 0, i32 0
  %123 = load i32, ptr %8, align 4
  %124 = load i32, ptr %5, align 4
  %125 = sub i32 %123, %124
  %126 = zext i32 %125 to i64
  call void @ZSTD_optLdm_skipRawSeqStoreBytes(ptr noundef %122, i64 noundef %126)
  br label %134

127:                                              ; preds = %95
  %128 = load ptr, ptr %4, align 8
  %129 = getelementptr inbounds %struct.ZSTD_optLdm_t, ptr %128, i32 0, i32 0
  %130 = load i32, ptr %9, align 4
  %131 = load i32, ptr %10, align 4
  %132 = add i32 %130, %131
  %133 = zext i32 %132 to i64
  call void @ZSTD_optLdm_skipRawSeqStoreBytes(ptr noundef %129, i64 noundef %133)
  br label %134

134:                                              ; preds = %127, %117, %86, %26
  ret void
}