; Function Attrs: nofree norecurse nosync nounwind memory(read, argmem: readwrite, inaccessiblemem: none) uwtable
define internal fastcc void @ZSTD_opt_getNextMatchAndUpdateSeqStore(ptr noundef nonnull captures(none) initializes((40, 48)) %0, i32 noundef %1, i32 noundef %2) unnamed_addr #7 {
  %4 = getelementptr inbounds nuw i8, ptr %0, i64 24
  %5 = load i64, ptr %4, align 8
  %6 = icmp eq i64 %5, 0
  br i1 %6, label %10, label %7

7:                                                ; preds = %3
  %8 = getelementptr inbounds nuw i8, ptr %0, i64 8
  %9 = load i64, ptr %8, align 8
  %.not = icmp ult i64 %9, %5
  br i1 %.not, label %13, label %10

10:                                               ; preds = %7, %3
  %11 = getelementptr inbounds nuw i8, ptr %0, i64 40
  store i32 -1, ptr %11, align 8
  %12 = getelementptr inbounds nuw i8, ptr %0, i64 44
  store i32 -1, ptr %12, align 4
  br label %ZSTD_optLdm_skipRawSeqStoreBytes.exit

13:                                               ; preds = %7
  %14 = load ptr, ptr %0, align 8
  %15 = getelementptr inbounds %struct.rawSeq, ptr %14, i64 %9
  %.sroa.2.0..sroa_idx = getelementptr inbounds nuw i8, ptr %15, i64 4
  %.sroa.2.0.copyload = load i32, ptr %.sroa.2.0..sroa_idx, align 4
  %.sroa.5.0..sroa_idx = getelementptr inbounds nuw i8, ptr %15, i64 8
  %.sroa.5.0.copyload = load i32, ptr %.sroa.5.0..sroa_idx, align 4
  %16 = add i32 %2, %1
  %17 = getelementptr inbounds nuw i8, ptr %0, i64 16
  %18 = load i64, ptr %17, align 8
  %19 = zext i32 %.sroa.2.0.copyload to i64
  %20 = icmp ult i64 %18, %19
  %21 = trunc i64 %18 to i32
  %22 = sub i32 %.sroa.2.0.copyload, %21
  %23 = select i1 %20, i32 %22, i32 0
  %24 = icmp eq i32 %23, 0
  %25 = select i1 %24, i32 %22, i32 0
  %spec.select = add i32 %25, %.sroa.5.0.copyload
  %.not43 = icmp ult i32 %23, %2
  br i1 %.not43, label %41, label %26

26:                                               ; preds = %13
  %27 = getelementptr inbounds nuw i8, ptr %0, i64 40
  store i32 -1, ptr %27, align 8
  %28 = getelementptr inbounds nuw i8, ptr %0, i64 44
  store i32 -1, ptr %28, align 4
  %29 = add i32 %2, %21
  %cond25.i = icmp eq i32 %29, 0
  br i1 %cond25.i, label %.loopexit.i, label %.lr.ph.i

.lr.ph.i:                                         ; preds = %26, %35
  %30 = phi i64 [ %37, %35 ], [ %9, %26 ]
  %.026.i = phi i32 [ %36, %35 ], [ %29, %26 ]
  %31 = icmp ult i64 %30, %5
  br i1 %31, label %32, label %.critedge.i

32:                                               ; preds = %.lr.ph.i
  %33 = getelementptr inbounds %struct.rawSeq, ptr %14, i64 %30
  %.sroa.1.0..sroa_idx.i = getelementptr inbounds nuw i8, ptr %33, i64 4
  %.sroa.1.0.copyload.i = load i32, ptr %.sroa.1.0..sroa_idx.i, align 4
  %.sroa.3.0..sroa_idx.i = getelementptr inbounds nuw i8, ptr %33, i64 8
  %.sroa.3.0.copyload.i = load i32, ptr %.sroa.3.0..sroa_idx.i, align 4
  %34 = add i32 %.sroa.3.0.copyload.i, %.sroa.1.0.copyload.i
  %.not19.i = icmp ult i32 %.026.i, %34
  br i1 %.not19.i, label %38, label %35

35:                                               ; preds = %32
  %36 = sub nuw i32 %.026.i, %34
  %37 = add nuw i64 %30, 1
  store i64 %37, ptr %8, align 8
  %cond.i = icmp eq i32 %36, 0
  br i1 %cond.i, label %.loopexit.i, label %.lr.ph.i, !llvm.loop !21

38:                                               ; preds = %32
  %39 = zext i32 %.026.i to i64
  store i64 %39, ptr %17, align 8
  br label %.critedge.i

.critedge.i:                                      ; preds = %.lr.ph.i, %38
  %40 = icmp eq i64 %30, %5
  br i1 %40, label %.loopexit.i, label %ZSTD_optLdm_skipRawSeqStoreBytes.exit

.loopexit.i:                                      ; preds = %35, %.critedge.i, %26
  store i64 0, ptr %17, align 8
  br label %ZSTD_optLdm_skipRawSeqStoreBytes.exit

41:                                               ; preds = %13
  %.sroa.0.0.copyload = load i32, ptr %15, align 4
  %42 = add i32 %23, %1
  %43 = getelementptr inbounds nuw i8, ptr %0, i64 40
  store i32 %42, ptr %43, align 8
  %44 = add i32 %spec.select, %42
  %45 = getelementptr inbounds nuw i8, ptr %0, i64 44
  store i32 %44, ptr %45, align 4
  %46 = getelementptr inbounds nuw i8, ptr %0, i64 48
  store i32 %.sroa.0.0.copyload, ptr %46, align 8
  %47 = icmp ugt i32 %44, %16
  br i1 %47, label %48, label %61

48:                                               ; preds = %41
  store i32 %16, ptr %45, align 4
  %49 = add i32 %2, %21
  %cond25.i44 = icmp eq i32 %49, 0
  br i1 %cond25.i44, label %.loopexit.i49, label %.lr.ph.i45

.lr.ph.i45:                                       ; preds = %48, %55
  %50 = phi i64 [ %57, %55 ], [ %9, %48 ]
  %.026.i47 = phi i32 [ %56, %55 ], [ %49, %48 ]
  %51 = icmp ult i64 %50, %5
  br i1 %51, label %52, label %.critedge.i48

52:                                               ; preds = %.lr.ph.i45
  %53 = getelementptr inbounds %struct.rawSeq, ptr %14, i64 %50
  %.sroa.1.0..sroa_idx.i50 = getelementptr inbounds nuw i8, ptr %53, i64 4
  %.sroa.1.0.copyload.i51 = load i32, ptr %.sroa.1.0..sroa_idx.i50, align 4
  %.sroa.3.0..sroa_idx.i52 = getelementptr inbounds nuw i8, ptr %53, i64 8
  %.sroa.3.0.copyload.i53 = load i32, ptr %.sroa.3.0..sroa_idx.i52, align 4
  %54 = add i32 %.sroa.3.0.copyload.i53, %.sroa.1.0.copyload.i51
  %.not19.i54 = icmp ult i32 %.026.i47, %54
  br i1 %.not19.i54, label %58, label %55

55:                                               ; preds = %52
  %56 = sub nuw i32 %.026.i47, %54
  %57 = add nuw i64 %50, 1
  store i64 %57, ptr %8, align 8
  %cond.i55 = icmp eq i32 %56, 0
  br i1 %cond.i55, label %.loopexit.i49, label %.lr.ph.i45, !llvm.loop !21

58:                                               ; preds = %52
  %59 = zext i32 %.026.i47 to i64
  store i64 %59, ptr %17, align 8
  br label %.critedge.i48

.critedge.i48:                                    ; preds = %.lr.ph.i45, %58
  %60 = icmp eq i64 %50, %5
  br i1 %60, label %.loopexit.i49, label %ZSTD_optLdm_skipRawSeqStoreBytes.exit

.loopexit.i49:                                    ; preds = %55, %.critedge.i48, %48
  store i64 0, ptr %17, align 8
  br label %ZSTD_optLdm_skipRawSeqStoreBytes.exit

61:                                               ; preds = %41
  %62 = add i32 %23, %21
  %63 = add i32 %62, %spec.select
  %cond25.i57 = icmp eq i32 %63, 0
  br i1 %cond25.i57, label %.loopexit.i62, label %.lr.ph.i58

.lr.ph.i58:                                       ; preds = %61, %69
  %64 = phi i64 [ %71, %69 ], [ %9, %61 ]
  %.026.i60 = phi i32 [ %70, %69 ], [ %63, %61 ]
  %65 = icmp ult i64 %64, %5
  br i1 %65, label %66, label %.critedge.i61

66:                                               ; preds = %.lr.ph.i58
  %67 = getelementptr inbounds %struct.rawSeq, ptr %14, i64 %64
  %.sroa.1.0..sroa_idx.i63 = getelementptr inbounds nuw i8, ptr %67, i64 4
  %.sroa.1.0.copyload.i64 = load i32, ptr %.sroa.1.0..sroa_idx.i63, align 4
  %.sroa.3.0..sroa_idx.i65 = getelementptr inbounds nuw i8, ptr %67, i64 8
  %.sroa.3.0.copyload.i66 = load i32, ptr %.sroa.3.0..sroa_idx.i65, align 4
  %68 = add i32 %.sroa.3.0.copyload.i66, %.sroa.1.0.copyload.i64
  %.not19.i67 = icmp ult i32 %.026.i60, %68
  br i1 %.not19.i67, label %72, label %69

69:                                               ; preds = %66
  %70 = sub nuw i32 %.026.i60, %68
  %71 = add nuw i64 %64, 1
  store i64 %71, ptr %8, align 8
  %cond.i68 = icmp eq i32 %70, 0
  br i1 %cond.i68, label %.loopexit.i62, label %.lr.ph.i58, !llvm.loop !21

72:                                               ; preds = %66
  %73 = zext i32 %.026.i60 to i64
  store i64 %73, ptr %17, align 8
  br label %.critedge.i61

.critedge.i61:                                    ; preds = %.lr.ph.i58, %72
  %74 = icmp eq i64 %64, %5
  br i1 %74, label %.loopexit.i62, label %ZSTD_optLdm_skipRawSeqStoreBytes.exit

.loopexit.i62:                                    ; preds = %69, %.critedge.i61, %61
  store i64 0, ptr %17, align 8
  br label %ZSTD_optLdm_skipRawSeqStoreBytes.exit

ZSTD_optLdm_skipRawSeqStoreBytes.exit:            ; preds = %.loopexit.i62, %.critedge.i61, %.loopexit.i49, %.critedge.i48, %.loopexit.i, %.critedge.i, %10
  ret void
}